; Function Attrs: nounwind uwtable
define hidden i32 @plpgsql_peek(ptr noundef %0) local_unnamed_addr #0 {
  %2 = alloca %struct.TokenAuxData, align 8
  call void @llvm.lifetime.start.p0(i64 40, ptr nonnull %2) #12
  %3 = call fastcc i32 @internal_yylex(ptr noundef %2, ptr noundef %0)
  %4 = load ptr, ptr %0, align 8
  %5 = getelementptr inbounds nuw i8, ptr %4, i64 104
  %6 = load i32, ptr %5, align 8
  %7 = icmp sgt i32 %6, 3
  br i1 %7, label %8, label %push_back_token.exit

8:                                                ; preds = %1
  %9 = call zeroext i1 @errstart_cold(i32 noundef 21, ptr noundef nonnull @.str) #13
  call void @llvm.assume(i1 %9)
  %10 = call i32 (ptr, ...) @errmsg_internal(ptr noundef nonnull @.str.7) #12
  call void @errfinish(ptr noundef nonnull @.str.2, i32 noundef 388, ptr noundef nonnull @__func__.push_back_token) #12
  unreachable

push_back_token.exit:                             ; preds = %1
  %11 = getelementptr inbounds nuw i8, ptr %4, i64 108
  %12 = sext i32 %6 to i64
  %13 = getelementptr inbounds [4 x i32], ptr %11, i64 0, i64 %12
  store i32 %3, ptr %13, align 4
  %14 = load ptr, ptr %0, align 8
  %15 = getelementptr inbounds nuw i8, ptr %14, i64 128
  %16 = getelementptr inbounds nuw i8, ptr %14, i64 104
  %17 = load i32, ptr %16, align 8
  %18 = sext i32 %17 to i64
  %19 = getelementptr inbounds [4 x %struct.TokenAuxData], ptr %15, i64 0, i64 %18
  call void @llvm.memcpy.p0.p0.i64(ptr noundef nonnull align 8 dereferenceable(40) %19, ptr noundef nonnull readonly align 8 dereferenceable(40) %2, i64 40, i1 false)
  %20 = load ptr, ptr %0, align 8
  %21 = getelementptr inbounds nuw i8, ptr %20, i64 104
  %22 = load i32, ptr %21, align 8
  %23 = add i32 %22, 1
  store i32 %23, ptr %21, align 8
  call void @llvm.lifetime.end.p0(i64 40, ptr nonnull %2) #12
  ret i32 %3
}